target datalayout = "e-m:e-p270:32:32-p271:32:32-p272:64:64-i64:64-i128:128-f80:128-n8:16:32:64-S128"
target triple = "x86_64-pc-linux-gnu"

%"struct.faiss::Level1Quantizer" = type { ptr, i64, i8, i8, [6 x i8], %"struct.faiss::ClusteringParameters", ptr }
%"struct.faiss::ClusteringParameters" = type <{ i32, i32, i8, i8, i8, i8, i8, [3 x i8], i32, i32, i32, [4 x i8], i64, i8, i8, [6 x i8] }>

; Function Attrs: inlinehint mustprogress nounwind uwtable
define linkonce_odr void @_ZN5faiss20ClusteringParametersC2Ev(ptr noundef nonnull align 8 dereferenceable(42) %0) unnamed_addr #5 comdat align 2 {
  %2 = alloca ptr, align 8
  store ptr %0, ptr %2, align 8, !tbaa !140
  %3 = load ptr, ptr %2, align 8
  %4 = getelementptr inbounds nuw %"struct.faiss::ClusteringParameters", ptr %3, i32 0, i32 0
  store i32 25, ptr %4, align 8, !tbaa !142
  %5 = getelementptr inbounds nuw %"struct.faiss::ClusteringParameters", ptr %3, i32 0, i32 1
  store i32 1, ptr %5, align 4, !tbaa !143
  %6 = getelementptr inbounds nuw %"struct.faiss::ClusteringParameters", ptr %3, i32 0, i32 2
  store i8 0, ptr %6, align 8, !tbaa !144
  %7 = getelementptr inbounds nuw %"struct.faiss::ClusteringParameters", ptr %3, i32 0, i32 3
  store i8 0, ptr %7, align 1, !tbaa !145
  %8 = getelementptr inbounds nuw %"struct.faiss::ClusteringParameters", ptr %3, i32 0, i32 4
  store i8 0, ptr %8, align 2, !tbaa !146
  %9 = getelementptr inbounds nuw %"struct.faiss::ClusteringParameters", ptr %3, i32 0, i32 5
  store i8 0, ptr %9, align 1, !tbaa !147
  %10 = getelementptr inbounds nuw %"struct.faiss::ClusteringParameters", ptr %3, i32 0, i32 6
  store i8 0, ptr %10, align 4, !tbaa !148
  %11 = getelementptr inbounds nuw %"struct.faiss::ClusteringParameters", ptr %3, i32 0, i32 8
  store i32 39, ptr %11, align 8, !tbaa !149
  %12 = getelementptr inbounds nuw %"struct.faiss::ClusteringParameters", ptr %3, i32 0, i32 9
  store i32 256, ptr %12, align 4, !tbaa !150
  %13 = getelementptr inbounds nuw %"struct.faiss::ClusteringParameters", ptr %3, i32 0, i32 10
  store i32 1234, ptr %13, align 8, !tbaa !151
  %14 = getelementptr inbounds nuw %"struct.faiss::ClusteringParameters", ptr %3, i32 0, i32 12
  store i64 32768, ptr %14, align 8, !tbaa !152
  %15 = getelementptr inbounds nuw %"struct.faiss::ClusteringParameters", ptr %3, i32 0, i32 13
  store i8 1, ptr %15, align 8, !tbaa !153
  %16 = getelementptr inbounds nuw %"struct.faiss::ClusteringParameters", ptr %3, i32 0, i32 14
  store i8 0, ptr %16, align 1, !tbaa !154
  ret void
}

; Function Attrs: mustprogress nounwind uwtable
define void @_ZN5faiss15Level1QuantizerC2Ev(ptr noundef nonnull align 8 dereferenceable(80) %0) unnamed_addr #1 align 2 {
  %2 = alloca ptr, align 8
  store ptr %0, ptr %2, align 8, !tbaa !134
  %3 = load ptr, ptr %2, align 8
  %4 = getelementptr inbounds nuw %"struct.faiss::Level1Quantizer", ptr %3, i32 0, i32 0
  store ptr null, ptr %4, align 8, !tbaa !72
  %5 = getelementptr inbounds nuw %"struct.faiss::Level1Quantizer", ptr %3, i32 0, i32 1
  store i64 0, ptr %5, align 8, !tbaa !102
  %6 = getelementptr inbounds nuw %"struct.faiss::Level1Quantizer", ptr %3, i32 0, i32 2
  store i8 0, ptr %6, align 8, !tbaa !136
  %7 = getelementptr inbounds nuw %"struct.faiss::Level1Quantizer", ptr %3, i32 0, i32 3
  store i8 0, ptr %7, align 1, !tbaa !137
  %8 = getelementptr inbounds nuw %"struct.faiss::Level1Quantizer", ptr %3, i32 0, i32 5
  call void @_ZN5faiss20ClusteringParametersC2Ev(ptr noundef nonnull align 8 dereferenceable(42) %8) #20
  %9 = getelementptr inbounds nuw %"struct.faiss::Level1Quantizer", ptr %3, i32 0, i32 6
  store ptr null, ptr %9, align 8, !tbaa !138
  ret void
}