; Function Attrs: mustprogress nofree norecurse nosync nounwind willreturn memory(argmem: write) uwtable
define void @_ZN5faiss15Level1QuantizerC2Ev(ptr noundef nonnull writeonly align 8 captures(none) dereferenceable(80) initializes((0, 18), (24, 37), (40, 52), (56, 66), (72, 80)) %0) unnamed_addr #11 align 2 {
  %2 = getelementptr inbounds nuw i8, ptr %0, i64 24
  tail call void @llvm.memset.p0.i64(ptr noundef nonnull align 8 dereferenceable(18) %0, i8 0, i64 18, i1 false)
  store i32 25, ptr %2, align 8, !tbaa !146
  %3 = getelementptr inbounds nuw i8, ptr %0, i64 28
  store i32 1, ptr %3, align 4, !tbaa !137
  %4 = getelementptr inbounds nuw i8, ptr %0, i64 32
  %5 = getelementptr inbounds nuw i8, ptr %0, i64 40
  tail call void @llvm.memset.p0.i64(ptr noundef nonnull align 8 dereferenceable(5) %4, i8 0, i64 5, i1 false)
  store i32 39, ptr %5, align 8, !tbaa !138
  %6 = getelementptr inbounds nuw i8, ptr %0, i64 44
  store i32 256, ptr %6, align 4, !tbaa !139
  %7 = getelementptr inbounds nuw i8, ptr %0, i64 48
  store i32 1234, ptr %7, align 8, !tbaa !140
  %8 = getelementptr inbounds nuw i8, ptr %0, i64 56
  store i64 32768, ptr %8, align 8, !tbaa !141
  %9 = getelementptr inbounds nuw i8, ptr %0, i64 64
  store i8 1, ptr %9, align 8, !tbaa !142
  %10 = getelementptr inbounds nuw i8, ptr %0, i64 65
  store i8 0, ptr %10, align 1, !tbaa !143
  %11 = getelementptr inbounds nuw i8, ptr %0, i64 72
  store ptr null, ptr %11, align 8, !tbaa !144
  ret void
}